target datalayout = "e-m:e-p270:32:32-p271:32:32-p272:64:64-i64:64-i128:128-f80:128-n8:16:32:64-S128"
target triple = "x86_64-pc-linux-gnu"

%struct.AVFormatContext = type { ptr, ptr, ptr, ptr, ptr, i32, i32, ptr, i32, ptr, i32, ptr, ptr, i64, i64, i64, i32, i32, i32, i64, i64, ptr, i32, i32, ptr, i32, i32, i32, i32, ptr, i64, i32, i32, %struct.AVIOInterruptCB, i32, i32, i32, i32, i64, i32, i32, i32, i32, i32, i32, i32, i32, i32, i32, i32, i32, i64, i32, i32, i32, i32, i32, ptr, ptr, ptr, ptr, i32, ptr, ptr, ptr, ptr, i32, ptr, ptr, i64, ptr, ptr, ptr, i64 }
%struct.AVIOInterruptCB = type { ptr, ptr }
%struct.AVStream = type { ptr, i32, i32, ptr, ptr, %struct.AVRational, i64, i64, i64, i32, i32, %struct.AVRational, ptr, %struct.AVRational, %struct.AVPacket, i32, %struct.AVRational, i32 }
%struct.AVPacket = type { ptr, i64, i64, ptr, i32, i32, i32, ptr, i32, i64, i64, ptr, ptr, %struct.AVRational }
%struct.AVRational = type { i32, i32 }
%struct.AVDictionaryEntry = type { ptr, ptr }
%struct.SoXContext = type { i64 }
%struct.AVCodecParameters = type { i32, i32, i32, ptr, i32, ptr, i32, i32, i64, i32, i32, i32, i32, i32, i32, %struct.AVRational, %struct.AVRational, i32, i32, i32, i32, i32, i32, i32, %struct.AVChannelLayout, i32, i32, i32, i32, i32, i32 }
%struct.AVChannelLayout = type { i32, i32, %union.anon, ptr }
%union.anon = type { i64 }
%union.av_intfloat64 = type { i64 }

@.str.2 = private unnamed_addr constant [8 x i8] c"comment\00", align 1
@.str.3 = private unnamed_addr constant [5 x i8] c".SoX\00", align 1
@.str.4 = private unnamed_addr constant [5 x i8] c"XoS.\00", align 1
@.str.5 = private unnamed_addr constant [43 x i8] c"invalid codec; use pcm_s32le or pcm_s32be\0A\00", align 1

; Function Attrs: alwaysinline nounwind uwtable
define internal i64 @av_double2int(double noundef %0) #4 {
  %2 = alloca double, align 8
  %3 = alloca %union.av_intfloat64, align 8
  store double %0, ptr %2, align 8, !tbaa !58
  call void @llvm.lifetime.start.p0(i64 8, ptr %3) #5
  %4 = load double, ptr %2, align 8, !tbaa !58
  store double %4, ptr %3, align 8, !tbaa !57
  %5 = load i64, ptr %3, align 8, !tbaa !57
  call void @llvm.lifetime.end.p0(i64 8, ptr %3) #5
  ret i64 %5
}

; Function Attrs: alwaysinline nounwind uwtable
define internal void @ffio_wfourcc(ptr noundef %0, ptr noundef %1) #4 {
  %3 = alloca ptr, align 8
  %4 = alloca ptr, align 8
  store ptr %0, ptr %3, align 8, !tbaa !29
  store ptr %1, ptr %4, align 8, !tbaa !56
  %5 = load ptr, ptr %3, align 8, !tbaa !29
  %6 = load ptr, ptr %4, align 8, !tbaa !56
  %7 = getelementptr inbounds i8, ptr %6, i64 0
  %8 = load i8, ptr %7, align 1, !tbaa !57
  %9 = zext i8 %8 to i32
  %10 = load ptr, ptr %4, align 8, !tbaa !56
  %11 = getelementptr inbounds i8, ptr %10, i64 1
  %12 = load i8, ptr %11, align 1, !tbaa !57
  %13 = zext i8 %12 to i32
  %14 = shl i32 %13, 8
  %15 = or i32 %9, %14
  %16 = load ptr, ptr %4, align 8, !tbaa !56
  %17 = getelementptr inbounds i8, ptr %16, i64 2
  %18 = load i8, ptr %17, align 1, !tbaa !57
  %19 = zext i8 %18 to i32
  %20 = shl i32 %19, 16
  %21 = or i32 %15, %20
  %22 = load ptr, ptr %4, align 8, !tbaa !56
  %23 = getelementptr inbounds i8, ptr %22, i64 3
  %24 = load i8, ptr %23, align 1, !tbaa !57
  %25 = zext i8 %24 to i32
  %26 = shl i32 %25, 24
  %27 = or i32 %21, %26
  call void @avio_wl32(ptr noundef %5, i32 noundef %27)
  ret void
}

; Function Attrs: nounwind uwtable
define internal i32 @sox_write_header(ptr noundef %0) #0 {
  %2 = alloca i32, align 4
  %3 = alloca ptr, align 8
  %4 = alloca ptr, align 8
  %5 = alloca ptr, align 8
  %6 = alloca ptr, align 8
  %7 = alloca ptr, align 8
  %8 = alloca i64, align 8
  %9 = alloca i64, align 8
  %10 = alloca i32, align 4
  store ptr %0, ptr %3, align 8, !tbaa !4
  call void @llvm.lifetime.start.p0(i64 8, ptr %4) #5
  %11 = load ptr, ptr %3, align 8, !tbaa !4
  %12 = getelementptr inbounds nuw %struct.AVFormatContext, ptr %11, i32 0, i32 3
  %13 = load ptr, ptr %12, align 8, !tbaa !9
  store ptr %13, ptr %4, align 8, !tbaa !26
  call void @llvm.lifetime.start.p0(i64 8, ptr %5) #5
  %14 = load ptr, ptr %3, align 8, !tbaa !4
  %15 = getelementptr inbounds nuw %struct.AVFormatContext, ptr %14, i32 0, i32 4
  %16 = load ptr, ptr %15, align 8, !tbaa !28
  store ptr %16, ptr %5, align 8, !tbaa !29
  call void @llvm.lifetime.start.p0(i64 8, ptr %6) #5
  %17 = load ptr, ptr %3, align 8, !tbaa !4
  %18 = getelementptr inbounds nuw %struct.AVFormatContext, ptr %17, i32 0, i32 7
  %19 = load ptr, ptr %18, align 8, !tbaa !30
  %20 = getelementptr inbounds ptr, ptr %19, i64 0
  %21 = load ptr, ptr %20, align 8, !tbaa !31
  %22 = getelementptr inbounds nuw %struct.AVStream, ptr %21, i32 0, i32 3
  %23 = load ptr, ptr %22, align 8, !tbaa !33
  store ptr %23, ptr %6, align 8, !tbaa !40
  call void @llvm.lifetime.start.p0(i64 8, ptr %7) #5
  call void @llvm.lifetime.start.p0(i64 8, ptr %8) #5
  store i64 0, ptr %8, align 8, !tbaa !41
  call void @llvm.lifetime.start.p0(i64 8, ptr %9) #5
  %24 = load ptr, ptr %3, align 8, !tbaa !4
  %25 = getelementptr inbounds nuw %struct.AVFormatContext, ptr %24, i32 0, i32 29
  %26 = load ptr, ptr %25, align 8, !tbaa !42
  %27 = call ptr @av_dict_get(ptr noundef %26, ptr noundef @.str.2, ptr noundef null, i32 noundef 0)
  store ptr %27, ptr %7, align 8, !tbaa !43
  %28 = load ptr, ptr %7, align 8, !tbaa !43
  %29 = icmp ne ptr %28, null
  br i1 %29, label %30, label %35

30:                                               ; preds = %1
  %31 = load ptr, ptr %7, align 8, !tbaa !43
  %32 = getelementptr inbounds nuw %struct.AVDictionaryEntry, ptr %31, i32 0, i32 1
  %33 = load ptr, ptr %32, align 8, !tbaa !45
  %34 = call i64 @strlen(ptr noundef %33) #6
  store i64 %34, ptr %8, align 8, !tbaa !41
  br label %35

35:                                               ; preds = %30, %1
  %36 = load i64, ptr %8, align 8, !tbaa !41
  %37 = add i64 %36, 8
  %38 = sub i64 %37, 1
  %39 = and i64 %38, -8
  store i64 %39, ptr %9, align 8, !tbaa !41
  %40 = load i64, ptr %9, align 8, !tbaa !41
  %41 = add i64 28, %40
  %42 = load ptr, ptr %4, align 8, !tbaa !26
  %43 = getelementptr inbounds nuw %struct.SoXContext, ptr %42, i32 0, i32 0
  store i64 %41, ptr %43, align 8, !tbaa !47
  %44 = load ptr, ptr %6, align 8, !tbaa !40
  %45 = getelementptr inbounds nuw %struct.AVCodecParameters, ptr %44, i32 0, i32 1
  %46 = load i32, ptr %45, align 4, !tbaa !49
  %47 = icmp eq i32 %46, 65544
  br i1 %47, label %48, label %70

48:                                               ; preds = %35
  %49 = load ptr, ptr %5, align 8, !tbaa !29
  call void @ffio_wfourcc(ptr noundef %49, ptr noundef @.str.3)
  %50 = load ptr, ptr %5, align 8, !tbaa !29
  %51 = load ptr, ptr %4, align 8, !tbaa !26
  %52 = getelementptr inbounds nuw %struct.SoXContext, ptr %51, i32 0, i32 0
  %53 = load i64, ptr %52, align 8, !tbaa !47
  %54 = trunc i64 %53 to i32
  call void @avio_wl32(ptr noundef %50, i32 noundef %54)
  %55 = load ptr, ptr %5, align 8, !tbaa !29
  call void @avio_wl64(ptr noundef %55, i64 noundef 0)
  %56 = load ptr, ptr %5, align 8, !tbaa !29
  %57 = load ptr, ptr %6, align 8, !tbaa !40
  %58 = getelementptr inbounds nuw %struct.AVCodecParameters, ptr %57, i32 0, i32 25
  %59 = load i32, ptr %58, align 8, !tbaa !52
  %60 = sitofp i32 %59 to double
  %61 = call i64 @av_double2int(double noundef %60)
  call void @avio_wl64(ptr noundef %56, i64 noundef %61)
  %62 = load ptr, ptr %5, align 8, !tbaa !29
  %63 = load ptr, ptr %6, align 8, !tbaa !40
  %64 = getelementptr inbounds nuw %struct.AVCodecParameters, ptr %63, i32 0, i32 24
  %65 = getelementptr inbounds nuw %struct.AVChannelLayout, ptr %64, i32 0, i32 1
  %66 = load i32, ptr %65, align 4, !tbaa !53
  call void @avio_wl32(ptr noundef %62, i32 noundef %66)
  %67 = load ptr, ptr %5, align 8, !tbaa !29
  %68 = load i64, ptr %9, align 8, !tbaa !41
  %69 = trunc i64 %68 to i32
  call void @avio_wl32(ptr noundef %67, i32 noundef %69)
  br label %100

70:                                               ; preds = %35
  %71 = load ptr, ptr %6, align 8, !tbaa !40
  %72 = getelementptr inbounds nuw %struct.AVCodecParameters, ptr %71, i32 0, i32 1
  %73 = load i32, ptr %72, align 4, !tbaa !49
  %74 = icmp eq i32 %73, 65545
  br i1 %74, label %75, label %97

75:                                               ; preds = %70
  %76 = load ptr, ptr %5, align 8, !tbaa !29
  call void @ffio_wfourcc(ptr noundef %76, ptr noundef @.str.4)
  %77 = load ptr, ptr %5, align 8, !tbaa !29
  %78 = load ptr, ptr %4, align 8, !tbaa !26
  %79 = getelementptr inbounds nuw %struct.SoXContext, ptr %78, i32 0, i32 0
  %80 = load i64, ptr %79, align 8, !tbaa !47
  %81 = trunc i64 %80 to i32
  call void @avio_wb32(ptr noundef %77, i32 noundef %81)
  %82 = load ptr, ptr %5, align 8, !tbaa !29
  call void @avio_wb64(ptr noundef %82, i64 noundef 0)
  %83 = load ptr, ptr %5, align 8, !tbaa !29
  %84 = load ptr, ptr %6, align 8, !tbaa !40
  %85 = getelementptr inbounds nuw %struct.AVCodecParameters, ptr %84, i32 0, i32 25
  %86 = load i32, ptr %85, align 8, !tbaa !52
  %87 = sitofp i32 %86 to double
  %88 = call i64 @av_double2int(double noundef %87)
  call void @avio_wb64(ptr noundef %83, i64 noundef %88)
  %89 = load ptr, ptr %5, align 8, !tbaa !29
  %90 = load ptr, ptr %6, align 8, !tbaa !40
  %91 = getelementptr inbounds nuw %struct.AVCodecParameters, ptr %90, i32 0, i32 24
  %92 = getelementptr inbounds nuw %struct.AVChannelLayout, ptr %91, i32 0, i32 1
  %93 = load i32, ptr %92, align 4, !tbaa !53
  call void @avio_wb32(ptr noundef %89, i32 noundef %93)
  %94 = load ptr, ptr %5, align 8, !tbaa !29
  %95 = load i64, ptr %9, align 8, !tbaa !41
  %96 = trunc i64 %95 to i32
  call void @avio_wb32(ptr noundef %94, i32 noundef %96)
  br label %99

97:                                               ; preds = %70
  %98 = load ptr, ptr %3, align 8, !tbaa !4
  call void (ptr, i32, ptr, ...) @av_log(ptr noundef %98, i32 noundef 16, ptr noundef @.str.5)
  store i32 -22, ptr %2, align 4
  store i32 1, ptr %10, align 4
  br label %115

99:                                               ; preds = %75
  br label %100

100:                                              ; preds = %99, %48
  %101 = load i64, ptr %8, align 8, !tbaa !41
  %102 = icmp ne i64 %101, 0
  br i1 %102, label %103, label %110

103:                                              ; preds = %100
  %104 = load ptr, ptr %5, align 8, !tbaa !29
  %105 = load ptr, ptr %7, align 8, !tbaa !43
  %106 = getelementptr inbounds nuw %struct.AVDictionaryEntry, ptr %105, i32 0, i32 1
  %107 = load ptr, ptr %106, align 8, !tbaa !45
  %108 = load i64, ptr %8, align 8, !tbaa !41
  %109 = trunc i64 %108 to i32
  call void @avio_write(ptr noundef %104, ptr noundef %107, i32 noundef %109)
  br label %110

110:                                              ; preds = %103, %100
  %111 = load ptr, ptr %5, align 8, !tbaa !29
  %112 = load i64, ptr %9, align 8, !tbaa !41
  %113 = load i64, ptr %8, align 8, !tbaa !41
  %114 = sub i64 %112, %113
  call void @ffio_fill(ptr noundef %111, i32 noundef 0, i64 noundef %114)
  store i32 0, ptr %2, align 4
  store i32 1, ptr %10, align 4
  br label %115

115:                                              ; preds = %110, %97
  call void @llvm.lifetime.end.p0(i64 8, ptr %9) #5
  call void @llvm.lifetime.end.p0(i64 8, ptr %8) #5
  call void @llvm.lifetime.end.p0(i64 8, ptr %7) #5
  call void @llvm.lifetime.end.p0(i64 8, ptr %6) #5
  call void @llvm.lifetime.end.p0(i64 8, ptr %5) #5
  call void @llvm.lifetime.end.p0(i64 8, ptr %4) #5
  %116 = load i32, ptr %2, align 4
  ret i32 %116
}