; Function Attrs: nounwind uwtable
define internal range(i32 -22, 1) i32 @sox_write_header(ptr noundef %0) #0 {
  %2 = getelementptr inbounds nuw i8, ptr %0, i64 24
  %3 = load ptr, ptr %2, align 8, !tbaa !4
  %4 = getelementptr inbounds nuw i8, ptr %0, i64 32
  %5 = load ptr, ptr %4, align 8, !tbaa !24
  %6 = getelementptr inbounds nuw i8, ptr %0, i64 48
  %7 = load ptr, ptr %6, align 8, !tbaa !25
  %8 = load ptr, ptr %7, align 8, !tbaa !26
  %9 = getelementptr inbounds nuw i8, ptr %8, i64 16
  %10 = load ptr, ptr %9, align 8, !tbaa !28
  %11 = getelementptr inbounds nuw i8, ptr %0, i64 192
  %12 = load ptr, ptr %11, align 8, !tbaa !35
  %13 = tail call ptr @av_dict_get(ptr noundef %12, ptr noundef nonnull @.str.2, ptr noundef null, i32 noundef 0) #3
  %.not = icmp eq ptr %13, null
  br i1 %.not, label %18, label %14

14:                                               ; preds = %1
  %15 = getelementptr inbounds nuw i8, ptr %13, i64 8
  %16 = load ptr, ptr %15, align 8, !tbaa !36
  %17 = tail call i64 @strlen(ptr noundef nonnull dereferenceable(1) %16) #4
  br label %18

18:                                               ; preds = %14, %1
  %.039 = phi i64 [ %17, %14 ], [ 0, %1 ]
  %19 = add i64 %.039, 7
  %20 = and i64 %19, -8
  %21 = add i64 %20, 28
  store i64 %21, ptr %3, align 8, !tbaa !38
  %22 = getelementptr inbounds nuw i8, ptr %10, i64 4
  %23 = load i32, ptr %22, align 4, !tbaa !40
  switch i32 %23, label %44 [
    i32 65544, label %24
    i32 65545, label %34
  ]

24:                                               ; preds = %18
  tail call void @avio_wl32(ptr noundef %5, i32 noundef 1483690798) #3
  %25 = load i64, ptr %3, align 8, !tbaa !38
  %26 = trunc i64 %25 to i32
  tail call void @avio_wl32(ptr noundef %5, i32 noundef %26) #3
  tail call void @avio_wl64(ptr noundef %5, i64 noundef 0) #3
  %27 = getelementptr inbounds nuw i8, ptr %10, i64 152
  %28 = load i32, ptr %27, align 8, !tbaa !43
  %29 = sitofp i32 %28 to double
  %30 = bitcast double %29 to i64
  tail call void @avio_wl64(ptr noundef %5, i64 noundef %30) #3
  %31 = getelementptr inbounds nuw i8, ptr %10, i64 132
  %32 = load i32, ptr %31, align 4, !tbaa !44
  tail call void @avio_wl32(ptr noundef %5, i32 noundef %32) #3
  %33 = trunc i64 %20 to i32
  tail call void @avio_wl32(ptr noundef %5, i32 noundef %33) #3
  br label %45

34:                                               ; preds = %18
  tail call void @avio_wl32(ptr noundef %5, i32 noundef 777219928) #3
  %35 = load i64, ptr %3, align 8, !tbaa !38
  %36 = trunc i64 %35 to i32
  tail call void @avio_wb32(ptr noundef %5, i32 noundef %36) #3
  tail call void @avio_wb64(ptr noundef %5, i64 noundef 0) #3
  %37 = getelementptr inbounds nuw i8, ptr %10, i64 152
  %38 = load i32, ptr %37, align 8, !tbaa !43
  %39 = sitofp i32 %38 to double
  %40 = bitcast double %39 to i64
  tail call void @avio_wb64(ptr noundef %5, i64 noundef %40) #3
  %41 = getelementptr inbounds nuw i8, ptr %10, i64 132
  %42 = load i32, ptr %41, align 4, !tbaa !44
  tail call void @avio_wb32(ptr noundef %5, i32 noundef %42) #3
  %43 = trunc i64 %20 to i32
  tail call void @avio_wb32(ptr noundef %5, i32 noundef %43) #3
  br label %45

44:                                               ; preds = %18
  tail call void (ptr, i32, ptr, ...) @av_log(ptr noundef nonnull %0, i32 noundef 16, ptr noundef nonnull @.str.5) #3
  br label %52

45:                                               ; preds = %34, %24
  %.not42 = icmp eq i64 %.039, 0
  br i1 %.not42, label %50, label %46

46:                                               ; preds = %45
  %47 = getelementptr inbounds nuw i8, ptr %13, i64 8
  %48 = load ptr, ptr %47, align 8, !tbaa !36
  %49 = trunc i64 %.039 to i32
  tail call void @avio_write(ptr noundef %5, ptr noundef %48, i32 noundef %49) #3
  br label %50

50:                                               ; preds = %46, %45
  %51 = sub i64 %20, %.039
  tail call void @ffio_fill(ptr noundef %5, i32 noundef 0, i64 noundef %51) #3
  br label %52

52:                                               ; preds = %50, %44
  %.0 = phi i32 [ 0, %50 ], [ -22, %44 ]
  ret i32 %.0
}